; Function Attrs: mustprogress uwtable
define internal fastcc void @_ZN5arrow12_GLOBAL__N_113PrettyPrinter10CloseArrayERKNS_5ArrayE(ptr noundef nonnull align 8 captures(none) dereferenceable(24) %0, i64 %.8.val.16.val) unnamed_addr #4 align 2 {
  %2 = icmp sgt i64 %.8.val.16.val, 0
  %.pre2 = load ptr, ptr %0, align 8, !tbaa !221
  br i1 %2, label %3, label %_ZN5arrow12_GLOBAL__N_113PrettyPrinter6IndentEv.exit

3:                                                ; preds = %1
  %4 = getelementptr inbounds nuw i8, ptr %.pre2, i64 4
  %5 = load i32, ptr %4, align 4, !tbaa !32
  %6 = getelementptr inbounds nuw i8, ptr %0, i64 8
  %7 = load i32, ptr %6, align 8, !tbaa !58
  %8 = sub nsw i32 %7, %5
  store i32 %8, ptr %6, align 8, !tbaa !58
  %9 = getelementptr inbounds nuw i8, ptr %.pre2, i64 48
  %10 = load i8, ptr %9, align 8, !tbaa !45, !range !99, !noundef !100
  %11 = trunc nuw i8 %10 to i1
  %12 = icmp slt i32 %8, 1
  %or.cond.not = select i1 %11, i1 true, i1 %12
  br i1 %or.cond.not, label %_ZN5arrow12_GLOBAL__N_113PrettyPrinter6IndentEv.exit, label %.lr.ph.i

.lr.ph.i:                                         ; preds = %3
  %13 = getelementptr inbounds nuw i8, ptr %0, i64 16
  br label %14

14:                                               ; preds = %14, %.lr.ph.i
  %.02.i = phi i32 [ 0, %.lr.ph.i ], [ %17, %14 ]
  %15 = load ptr, ptr %13, align 8, !tbaa !61
  %16 = tail call noundef nonnull align 8 dereferenceable(8) ptr @_ZSt16__ostream_insertIcSt11char_traitsIcEERSt13basic_ostreamIT_T0_ES6_PKS3_l(ptr noundef nonnull align 8 dereferenceable(8) %15, ptr noundef nonnull @.str, i64 noundef 1)
  %17 = add nuw nsw i32 %.02.i, 1
  %18 = load i32, ptr %6, align 8, !tbaa !58
  %19 = icmp slt i32 %17, %18
  br i1 %19, label %14, label %_ZN5arrow12_GLOBAL__N_113PrettyPrinter6IndentEv.exit.loopexit, !llvm.loop !222

_ZN5arrow12_GLOBAL__N_113PrettyPrinter6IndentEv.exit.loopexit: ; preds = %14
  %.pre = load ptr, ptr %0, align 8, !tbaa !221
  br label %_ZN5arrow12_GLOBAL__N_113PrettyPrinter6IndentEv.exit

_ZN5arrow12_GLOBAL__N_113PrettyPrinter6IndentEv.exit: ; preds = %_ZN5arrow12_GLOBAL__N_113PrettyPrinter6IndentEv.exit.loopexit, %3, %1
  %20 = phi ptr [ %.pre, %_ZN5arrow12_GLOBAL__N_113PrettyPrinter6IndentEv.exit.loopexit ], [ %.pre2, %3 ], [ %.pre2, %1 ]
  %21 = getelementptr inbounds nuw i8, ptr %0, i64 16
  %22 = load ptr, ptr %21, align 8, !tbaa !61
  %23 = getelementptr inbounds nuw i8, ptr %20, i64 88
  %24 = load ptr, ptr %23, align 8, !tbaa !107
  %25 = getelementptr inbounds nuw i8, ptr %20, i64 96
  %26 = load i64, ptr %25, align 8, !tbaa !43
  %27 = tail call noundef nonnull align 8 dereferenceable(8) ptr @_ZSt16__ostream_insertIcSt11char_traitsIcEERSt13basic_ostreamIT_T0_ES6_PKS3_l(ptr noundef nonnull align 8 dereferenceable(8) %22, ptr noundef %24, i64 noundef %26)
  ret void
}